; Function Attrs: mustprogress nounwind uwtable
define internal noundef nonnull align 8 dereferenceable(144) ptr @"_ZN4llvm12function_refIFRNS_8LoopInfoERNS_8FunctionEEE11callback_fnIZN12_GLOBAL__N_123LoopExtractorLegacyPass11runOnModuleERNS_6ModuleEE3$_1EES2_lS4_"(i64 noundef %0, ptr noundef nonnull align 8 dereferenceable(136) %1) #0 align 2 {
  %3 = alloca %"class.std::tuple.144", align 8
  %4 = inttoptr i64 %0 to ptr
  %.val = load ptr, ptr %4, align 8
  %5 = getelementptr i8, ptr %4, i64 8
  %.val1 = load ptr, ptr %5, align 8
  call void @llvm.lifetime.start.p0(i64 16, ptr nonnull %3)
  %6 = getelementptr inbounds nuw i8, ptr %.val, i64 8
  %7 = load ptr, ptr %6, align 8
  call void @_ZN4llvm16AnalysisResolver12findImplPassEPNS_4PassEPKvRNS_8FunctionE(ptr dead_on_unwind nonnull writable sret(%"class.std::tuple.144") align 8 %3, ptr noundef nonnull align 8 dereferenceable(32) %7, ptr noundef nonnull %.val, ptr noundef nonnull @_ZN4llvm19LoopInfoWrapperPass2IDE, ptr noundef nonnull align 8 dereferenceable(136) %1) #14
  %8 = getelementptr inbounds i8, ptr %3, i64 8
  %9 = load ptr, ptr %8, align 8
  %.not.i.i.i = icmp eq ptr %.val1, null
  br i1 %.not.i.i.i, label %"_ZZN12_GLOBAL__N_123LoopExtractorLegacyPass11runOnModuleERN4llvm6ModuleEENK3$_1clERNS1_8FunctionE.exit", label %10

10:                                               ; preds = %2
  %11 = load i8, ptr %3, align 8
  %12 = load i8, ptr %.val1, align 1
  %13 = or i8 %12, %11
  %14 = and i8 %13, 1
  store i8 %14, ptr %.val1, align 1
  br label %"_ZZN12_GLOBAL__N_123LoopExtractorLegacyPass11runOnModuleERN4llvm6ModuleEENK3$_1clERNS1_8FunctionE.exit"

"_ZZN12_GLOBAL__N_123LoopExtractorLegacyPass11runOnModuleERN4llvm6ModuleEENK3$_1clERNS1_8FunctionE.exit": ; preds = %2, %10
  %15 = load ptr, ptr %9, align 8
  %16 = getelementptr inbounds i8, ptr %15, i64 96
  %17 = load ptr, ptr %16, align 8
  %18 = call noundef nonnull align 8 dereferenceable(176) ptr %17(ptr noundef nonnull align 8 dereferenceable(28) %9, ptr noundef nonnull @_ZN4llvm19LoopInfoWrapperPass2IDE) #14
  call void @llvm.lifetime.end.p0(i64 16, ptr nonnull %3)
  %19 = getelementptr inbounds nuw i8, ptr %18, i64 32
  ret ptr %19
}